ARM GAS  /tmp/ccvmNd5T.s 			page 1


   1              		.cpu cortex-m4
   2              		.eabi_attribute 27, 1
   3              		.eabi_attribute 28, 1
   4              		.eabi_attribute 20, 1
   5              		.eabi_attribute 21, 1
   6              		.eabi_attribute 23, 3
   7              		.eabi_attribute 24, 1
   8              		.eabi_attribute 25, 1
   9              		.eabi_attribute 26, 1
  10              		.eabi_attribute 30, 1
  11              		.eabi_attribute 34, 1
  12              		.eabi_attribute 18, 4
  13              		.file	"retarget.c"
  14              		.text
  15              	.Ltext0:
  16              		.cfi_sections	.debug_frame
  17              		.section	.text.RetargetInit,"ax",%progbits
  18              		.align	1
  19              		.global	RetargetInit
  20              		.arch armv7e-m
  21              		.syntax unified
  22              		.thumb
  23              		.thumb_func
  24              		.fpu fpv4-sp-d16
  26              	RetargetInit:
  27              	.LVL0:
  28              	.LFB309:
  29              		.file 1 "Src/retarget.c"
   1:Src/retarget.c **** #include <_ansi.h>
   2:Src/retarget.c **** #include <_syslist.h>
   3:Src/retarget.c **** #include <errno.h>
   4:Src/retarget.c **** #include <sys/time.h>
   5:Src/retarget.c **** #include <sys/times.h>
   6:Src/retarget.c **** #include <limits.h>
   7:Src/retarget.c **** #include <signal.h>
   8:Src/retarget.c **** #include <stdint.h>
   9:Src/retarget.c **** #include <stdio.h>
  10:Src/retarget.c **** #include "retarget.h"
  11:Src/retarget.c **** 
  12:Src/retarget.c **** #if !defined(OS_USE_SEMIHOSTING)
  13:Src/retarget.c **** 
  14:Src/retarget.c **** #define STDIN_FILENO  0
  15:Src/retarget.c **** #define STDOUT_FILENO 1
  16:Src/retarget.c **** #define STDERR_FILENO 2
  17:Src/retarget.c **** 
  18:Src/retarget.c **** UART_HandleTypeDef *gHuart;
  19:Src/retarget.c **** 
  20:Src/retarget.c **** void RetargetInit(UART_HandleTypeDef *huart) {
  30              		.loc 1 20 46 view -0
  31              		.cfi_startproc
  32              		@ args = 0, pretend = 0, frame = 0
  33              		@ frame_needed = 0, uses_anonymous_args = 0
  34              		.loc 1 20 46 is_stmt 0 view .LVU1
  35 0000 08B5     		push	{r3, lr}
  36              	.LCFI0:
  37              		.cfi_def_cfa_offset 8
  38              		.cfi_offset 3, -8
ARM GAS  /tmp/ccvmNd5T.s 			page 2


  39              		.cfi_offset 14, -4
  21:Src/retarget.c ****   gHuart = huart;
  40              		.loc 1 21 3 is_stmt 1 view .LVU2
  41              		.loc 1 21 10 is_stmt 0 view .LVU3
  42 0002 054B     		ldr	r3, .L3
  43 0004 1860     		str	r0, [r3]
  22:Src/retarget.c **** 
  23:Src/retarget.c ****   /* Disable I/O buffering for STDOUT stream, so that
  24:Src/retarget.c ****    * chars are sent out as soon as they are printed. */
  25:Src/retarget.c ****   setvbuf(stdout, NULL, _IONBF, 0);
  44              		.loc 1 25 3 is_stmt 1 view .LVU4
  45              		.loc 1 25 11 is_stmt 0 view .LVU5
  46 0006 054B     		ldr	r3, .L3+4
  47 0008 1868     		ldr	r0, [r3]
  48              	.LVL1:
  49              		.loc 1 25 3 view .LVU6
  50 000a 0023     		movs	r3, #0
  51 000c 0222     		movs	r2, #2
  52 000e 1946     		mov	r1, r3
  53 0010 8068     		ldr	r0, [r0, #8]
  54 0012 FFF7FEFF 		bl	setvbuf
  55              	.LVL2:
  26:Src/retarget.c **** }
  56              		.loc 1 26 1 view .LVU7
  57 0016 08BD     		pop	{r3, pc}
  58              	.L4:
  59              		.align	2
  60              	.L3:
  61 0018 00000000 		.word	gHuart
  62 001c 00000000 		.word	_impure_ptr
  63              		.cfi_endproc
  64              	.LFE309:
  66              		.section	.text._isatty,"ax",%progbits
  67              		.align	1
  68              		.global	_isatty
  69              		.syntax unified
  70              		.thumb
  71              		.thumb_func
  72              		.fpu fpv4-sp-d16
  74              	_isatty:
  75              	.LVL3:
  76              	.LFB310:
  27:Src/retarget.c **** 
  28:Src/retarget.c **** int _isatty(int fd) {
  77              		.loc 1 28 21 is_stmt 1 view -0
  78              		.cfi_startproc
  79              		@ args = 0, pretend = 0, frame = 0
  80              		@ frame_needed = 0, uses_anonymous_args = 0
  29:Src/retarget.c ****   if (fd >= STDIN_FILENO && fd <= STDERR_FILENO)
  81              		.loc 1 29 3 view .LVU9
  82              		.loc 1 29 6 is_stmt 0 view .LVU10
  83 0000 0228     		cmp	r0, #2
  84 0002 01D8     		bhi	.L12
  30:Src/retarget.c ****     return 1;
  85              		.loc 1 30 12 view .LVU11
  86 0004 0120     		movs	r0, #1
  87              	.LVL4:
ARM GAS  /tmp/ccvmNd5T.s 			page 3


  31:Src/retarget.c **** 
  32:Src/retarget.c ****   errno = EBADF;
  33:Src/retarget.c ****   return 0;
  34:Src/retarget.c **** }
  88              		.loc 1 34 1 view .LVU12
  89 0006 7047     		bx	lr
  90              	.LVL5:
  91              	.L12:
  28:Src/retarget.c ****   if (fd >= STDIN_FILENO && fd <= STDERR_FILENO)
  92              		.loc 1 28 21 view .LVU13
  93 0008 08B5     		push	{r3, lr}
  94              	.LCFI1:
  95              		.cfi_def_cfa_offset 8
  96              		.cfi_offset 3, -8
  97              		.cfi_offset 14, -4
  32:Src/retarget.c ****   return 0;
  98              		.loc 1 32 3 is_stmt 1 view .LVU14
  99 000a FFF7FEFF 		bl	__errno
 100              	.LVL6:
  32:Src/retarget.c ****   return 0;
 101              		.loc 1 32 9 is_stmt 0 view .LVU15
 102 000e 0923     		movs	r3, #9
 103 0010 0360     		str	r3, [r0]
  33:Src/retarget.c **** }
 104              		.loc 1 33 3 is_stmt 1 view .LVU16
  33:Src/retarget.c **** }
 105              		.loc 1 33 10 is_stmt 0 view .LVU17
 106 0012 0020     		movs	r0, #0
 107              		.loc 1 34 1 view .LVU18
 108 0014 08BD     		pop	{r3, pc}
 109              		.cfi_endproc
 110              	.LFE310:
 112              		.section	.text._write,"ax",%progbits
 113              		.align	1
 114              		.global	_write
 115              		.syntax unified
 116              		.thumb
 117              		.thumb_func
 118              		.fpu fpv4-sp-d16
 120              	_write:
 121              	.LVL7:
 122              	.LFB311:
  35:Src/retarget.c **** 
  36:Src/retarget.c **** int _write(int fd, char* ptr, int len) {
 123              		.loc 1 36 40 is_stmt 1 view -0
 124              		.cfi_startproc
 125              		@ args = 0, pretend = 0, frame = 0
 126              		@ frame_needed = 0, uses_anonymous_args = 0
 127              		.loc 1 36 40 is_stmt 0 view .LVU20
 128 0000 10B5     		push	{r4, lr}
 129              	.LCFI2:
 130              		.cfi_def_cfa_offset 8
 131              		.cfi_offset 4, -8
 132              		.cfi_offset 14, -4
  37:Src/retarget.c ****   HAL_StatusTypeDef hstatus;
 133              		.loc 1 37 3 is_stmt 1 view .LVU21
  38:Src/retarget.c **** 
ARM GAS  /tmp/ccvmNd5T.s 			page 4


  39:Src/retarget.c ****   if (fd == STDOUT_FILENO || fd == STDERR_FILENO) {
 134              		.loc 1 39 3 view .LVU22
 135              		.loc 1 39 27 is_stmt 0 view .LVU23
 136 0002 0138     		subs	r0, r0, #1
 137              	.LVL8:
 138              		.loc 1 39 6 view .LVU24
 139 0004 0128     		cmp	r0, #1
 140 0006 0AD8     		bhi	.L14
 141 0008 1446     		mov	r4, r2
  40:Src/retarget.c ****     hstatus = HAL_UART_Transmit(gHuart, (uint8_t *) ptr, len, HAL_MAX_DELAY);
 142              		.loc 1 40 5 is_stmt 1 view .LVU25
 143              		.loc 1 40 15 is_stmt 0 view .LVU26
 144 000a 4FF0FF33 		mov	r3, #-1
 145 000e 92B2     		uxth	r2, r2
 146              	.LVL9:
 147              		.loc 1 40 15 view .LVU27
 148 0010 0748     		ldr	r0, .L18
 149              	.LVL10:
 150              		.loc 1 40 15 view .LVU28
 151 0012 0068     		ldr	r0, [r0]
 152 0014 FFF7FEFF 		bl	HAL_UART_Transmit
 153              	.LVL11:
  41:Src/retarget.c ****     if (hstatus == HAL_OK)
 154              		.loc 1 41 5 is_stmt 1 view .LVU29
 155              		.loc 1 41 8 is_stmt 0 view .LVU30
 156 0018 40B9     		cbnz	r0, .L16
  42:Src/retarget.c ****       return len;
 157              		.loc 1 42 14 view .LVU31
 158 001a 2046     		mov	r0, r4
 159              	.LVL12:
 160              	.L13:
  43:Src/retarget.c ****     else
  44:Src/retarget.c ****       return EIO;
  45:Src/retarget.c ****   }
  46:Src/retarget.c ****   errno = EBADF;
  47:Src/retarget.c ****   return -1;
  48:Src/retarget.c **** }
 161              		.loc 1 48 1 view .LVU32
 162 001c 10BD     		pop	{r4, pc}
 163              	.LVL13:
 164              	.L14:
  46:Src/retarget.c ****   return -1;
 165              		.loc 1 46 3 is_stmt 1 view .LVU33
 166 001e FFF7FEFF 		bl	__errno
 167              	.LVL14:
  46:Src/retarget.c ****   return -1;
 168              		.loc 1 46 9 is_stmt 0 view .LVU34
 169 0022 0923     		movs	r3, #9
 170 0024 0360     		str	r3, [r0]
  47:Src/retarget.c **** }
 171              		.loc 1 47 3 is_stmt 1 view .LVU35
  47:Src/retarget.c **** }
 172              		.loc 1 47 10 is_stmt 0 view .LVU36
 173 0026 4FF0FF30 		mov	r0, #-1
 174 002a F7E7     		b	.L13
 175              	.LVL15:
 176              	.L16:
ARM GAS  /tmp/ccvmNd5T.s 			page 5


  44:Src/retarget.c ****   }
 177              		.loc 1 44 14 view .LVU37
 178 002c 0520     		movs	r0, #5
 179              	.LVL16:
  44:Src/retarget.c ****   }
 180              		.loc 1 44 14 view .LVU38
 181 002e F5E7     		b	.L13
 182              	.L19:
 183              		.align	2
 184              	.L18:
 185 0030 00000000 		.word	gHuart
 186              		.cfi_endproc
 187              	.LFE311:
 189              		.section	.text._close,"ax",%progbits
 190              		.align	1
 191              		.global	_close
 192              		.syntax unified
 193              		.thumb
 194              		.thumb_func
 195              		.fpu fpv4-sp-d16
 197              	_close:
 198              	.LVL17:
 199              	.LFB312:
  49:Src/retarget.c **** 
  50:Src/retarget.c **** int _close(int fd) {
 200              		.loc 1 50 20 is_stmt 1 view -0
 201              		.cfi_startproc
 202              		@ args = 0, pretend = 0, frame = 0
 203              		@ frame_needed = 0, uses_anonymous_args = 0
  51:Src/retarget.c ****   if (fd >= STDIN_FILENO && fd <= STDERR_FILENO)
 204              		.loc 1 51 3 view .LVU40
 205              		.loc 1 51 6 is_stmt 0 view .LVU41
 206 0000 0228     		cmp	r0, #2
 207 0002 01D8     		bhi	.L27
  52:Src/retarget.c ****     return 0;
 208              		.loc 1 52 12 view .LVU42
 209 0004 0020     		movs	r0, #0
 210              	.LVL18:
  53:Src/retarget.c **** 
  54:Src/retarget.c ****   errno = EBADF;
  55:Src/retarget.c ****   return -1;
  56:Src/retarget.c **** }
 211              		.loc 1 56 1 view .LVU43
 212 0006 7047     		bx	lr
 213              	.LVL19:
 214              	.L27:
  50:Src/retarget.c ****   if (fd >= STDIN_FILENO && fd <= STDERR_FILENO)
 215              		.loc 1 50 20 view .LVU44
 216 0008 08B5     		push	{r3, lr}
 217              	.LCFI3:
 218              		.cfi_def_cfa_offset 8
 219              		.cfi_offset 3, -8
 220              		.cfi_offset 14, -4
  54:Src/retarget.c ****   return -1;
 221              		.loc 1 54 3 is_stmt 1 view .LVU45
 222 000a FFF7FEFF 		bl	__errno
 223              	.LVL20:
ARM GAS  /tmp/ccvmNd5T.s 			page 6


  54:Src/retarget.c ****   return -1;
 224              		.loc 1 54 9 is_stmt 0 view .LVU46
 225 000e 0923     		movs	r3, #9
 226 0010 0360     		str	r3, [r0]
  55:Src/retarget.c **** }
 227              		.loc 1 55 3 is_stmt 1 view .LVU47
  55:Src/retarget.c **** }
 228              		.loc 1 55 10 is_stmt 0 view .LVU48
 229 0012 4FF0FF30 		mov	r0, #-1
 230              		.loc 1 56 1 view .LVU49
 231 0016 08BD     		pop	{r3, pc}
 232              		.cfi_endproc
 233              	.LFE312:
 235              		.section	.text._lseek,"ax",%progbits
 236              		.align	1
 237              		.global	_lseek
 238              		.syntax unified
 239              		.thumb
 240              		.thumb_func
 241              		.fpu fpv4-sp-d16
 243              	_lseek:
 244              	.LVL21:
 245              	.LFB313:
  57:Src/retarget.c **** 
  58:Src/retarget.c **** int _lseek(int fd, int ptr, int dir) {
 246              		.loc 1 58 38 is_stmt 1 view -0
 247              		.cfi_startproc
 248              		@ args = 0, pretend = 0, frame = 0
 249              		@ frame_needed = 0, uses_anonymous_args = 0
 250              		.loc 1 58 38 is_stmt 0 view .LVU51
 251 0000 08B5     		push	{r3, lr}
 252              	.LCFI4:
 253              		.cfi_def_cfa_offset 8
 254              		.cfi_offset 3, -8
 255              		.cfi_offset 14, -4
  59:Src/retarget.c ****   (void) fd;
 256              		.loc 1 59 3 is_stmt 1 view .LVU52
  60:Src/retarget.c ****   (void) ptr;
 257              		.loc 1 60 3 view .LVU53
  61:Src/retarget.c ****   (void) dir;
 258              		.loc 1 61 3 view .LVU54
  62:Src/retarget.c **** 
  63:Src/retarget.c ****   errno = EBADF;
 259              		.loc 1 63 3 view .LVU55
 260 0002 FFF7FEFF 		bl	__errno
 261              	.LVL22:
 262              		.loc 1 63 9 is_stmt 0 view .LVU56
 263 0006 0923     		movs	r3, #9
 264 0008 0360     		str	r3, [r0]
  64:Src/retarget.c ****   return -1;
 265              		.loc 1 64 3 is_stmt 1 view .LVU57
  65:Src/retarget.c **** }
 266              		.loc 1 65 1 is_stmt 0 view .LVU58
 267 000a 4FF0FF30 		mov	r0, #-1
 268 000e 08BD     		pop	{r3, pc}
 269              		.cfi_endproc
 270              	.LFE313:
ARM GAS  /tmp/ccvmNd5T.s 			page 7


 272              		.section	.text._read,"ax",%progbits
 273              		.align	1
 274              		.global	_read
 275              		.syntax unified
 276              		.thumb
 277              		.thumb_func
 278              		.fpu fpv4-sp-d16
 280              	_read:
 281              	.LVL23:
 282              	.LFB314:
  66:Src/retarget.c **** 
  67:Src/retarget.c **** int _read(int fd, char* ptr, int len) {
 283              		.loc 1 67 39 is_stmt 1 view -0
 284              		.cfi_startproc
 285              		@ args = 0, pretend = 0, frame = 0
 286              		@ frame_needed = 0, uses_anonymous_args = 0
 287              		.loc 1 67 39 is_stmt 0 view .LVU60
 288 0000 08B5     		push	{r3, lr}
 289              	.LCFI5:
 290              		.cfi_def_cfa_offset 8
 291              		.cfi_offset 3, -8
 292              		.cfi_offset 14, -4
  68:Src/retarget.c ****   HAL_StatusTypeDef hstatus;
 293              		.loc 1 68 3 is_stmt 1 view .LVU61
  69:Src/retarget.c **** 
  70:Src/retarget.c ****   if (fd == STDIN_FILENO) {
 294              		.loc 1 70 3 view .LVU62
 295              		.loc 1 70 6 is_stmt 0 view .LVU63
 296 0002 48B9     		cbnz	r0, .L31
  71:Src/retarget.c ****     hstatus = HAL_UART_Receive(gHuart, (uint8_t *) ptr, 1, HAL_MAX_DELAY);
 297              		.loc 1 71 5 is_stmt 1 view .LVU64
 298              		.loc 1 71 15 is_stmt 0 view .LVU65
 299 0004 4FF0FF33 		mov	r3, #-1
 300 0008 0122     		movs	r2, #1
 301              	.LVL24:
 302              		.loc 1 71 15 view .LVU66
 303 000a 0848     		ldr	r0, .L35
 304              	.LVL25:
 305              		.loc 1 71 15 view .LVU67
 306 000c 0068     		ldr	r0, [r0]
 307 000e FFF7FEFF 		bl	HAL_UART_Receive
 308              	.LVL26:
  72:Src/retarget.c ****     if (hstatus == HAL_OK)
 309              		.loc 1 72 5 is_stmt 1 view .LVU68
 310              		.loc 1 72 8 is_stmt 0 view .LVU69
 311 0012 40B9     		cbnz	r0, .L33
  73:Src/retarget.c ****       return 1;
 312              		.loc 1 73 14 view .LVU70
 313 0014 0120     		movs	r0, #1
 314              	.LVL27:
 315              	.L30:
  74:Src/retarget.c ****     else
  75:Src/retarget.c ****       return EIO;
  76:Src/retarget.c ****   }
  77:Src/retarget.c ****   errno = EBADF;
  78:Src/retarget.c ****   return -1;
  79:Src/retarget.c **** }
ARM GAS  /tmp/ccvmNd5T.s 			page 8


 316              		.loc 1 79 1 view .LVU71
 317 0016 08BD     		pop	{r3, pc}
 318              	.LVL28:
 319              	.L31:
  77:Src/retarget.c ****   return -1;
 320              		.loc 1 77 3 is_stmt 1 view .LVU72
 321 0018 FFF7FEFF 		bl	__errno
 322              	.LVL29:
  77:Src/retarget.c ****   return -1;
 323              		.loc 1 77 9 is_stmt 0 view .LVU73
 324 001c 0923     		movs	r3, #9
 325 001e 0360     		str	r3, [r0]
  78:Src/retarget.c **** }
 326              		.loc 1 78 3 is_stmt 1 view .LVU74
  78:Src/retarget.c **** }
 327              		.loc 1 78 10 is_stmt 0 view .LVU75
 328 0020 4FF0FF30 		mov	r0, #-1
 329 0024 F7E7     		b	.L30
 330              	.LVL30:
 331              	.L33:
  75:Src/retarget.c ****   }
 332              		.loc 1 75 14 view .LVU76
 333 0026 0520     		movs	r0, #5
 334              	.LVL31:
  75:Src/retarget.c ****   }
 335              		.loc 1 75 14 view .LVU77
 336 0028 F5E7     		b	.L30
 337              	.L36:
 338 002a 00BF     		.align	2
 339              	.L35:
 340 002c 00000000 		.word	gHuart
 341              		.cfi_endproc
 342              	.LFE314:
 344              		.section	.text._fstat,"ax",%progbits
 345              		.align	1
 346              		.global	_fstat
 347              		.syntax unified
 348              		.thumb
 349              		.thumb_func
 350              		.fpu fpv4-sp-d16
 352              	_fstat:
 353              	.LVL32:
 354              	.LFB315:
  80:Src/retarget.c **** 
  81:Src/retarget.c **** int _fstat(int fd, struct stat* st) {
 355              		.loc 1 81 37 is_stmt 1 view -0
 356              		.cfi_startproc
 357              		@ args = 0, pretend = 0, frame = 0
 358              		@ frame_needed = 0, uses_anonymous_args = 0
 359              		.loc 1 81 37 is_stmt 0 view .LVU79
 360 0000 08B5     		push	{r3, lr}
 361              	.LCFI6:
 362              		.cfi_def_cfa_offset 8
 363              		.cfi_offset 3, -8
 364              		.cfi_offset 14, -4
  82:Src/retarget.c ****   if (fd >= STDIN_FILENO && fd <= STDERR_FILENO) {
 365              		.loc 1 82 3 is_stmt 1 view .LVU80
ARM GAS  /tmp/ccvmNd5T.s 			page 9


 366              		.loc 1 82 6 is_stmt 0 view .LVU81
 367 0002 0228     		cmp	r0, #2
 368 0004 04D8     		bhi	.L38
  83:Src/retarget.c ****     st->st_mode = S_IFCHR;
 369              		.loc 1 83 5 is_stmt 1 view .LVU82
 370              		.loc 1 83 17 is_stmt 0 view .LVU83
 371 0006 4FF40053 		mov	r3, #8192
 372 000a 4B60     		str	r3, [r1, #4]
  84:Src/retarget.c ****     return 0;
 373              		.loc 1 84 5 is_stmt 1 view .LVU84
 374              	.LVL33:
 375              	.L39:
  85:Src/retarget.c ****   }
  86:Src/retarget.c **** 
  87:Src/retarget.c ****   errno = EBADF;
  88:Src/retarget.c ****   return 0;
  89:Src/retarget.c **** }
 376              		.loc 1 89 1 is_stmt 0 view .LVU85
 377 000c 0020     		movs	r0, #0
 378 000e 08BD     		pop	{r3, pc}
 379              	.LVL34:
 380              	.L38:
  87:Src/retarget.c ****   return 0;
 381              		.loc 1 87 3 is_stmt 1 view .LVU86
 382 0010 FFF7FEFF 		bl	__errno
 383              	.LVL35:
  87:Src/retarget.c ****   return 0;
 384              		.loc 1 87 9 is_stmt 0 view .LVU87
 385 0014 0923     		movs	r3, #9
 386 0016 0360     		str	r3, [r0]
  88:Src/retarget.c **** }
 387              		.loc 1 88 3 is_stmt 1 view .LVU88
  88:Src/retarget.c **** }
 388              		.loc 1 88 10 is_stmt 0 view .LVU89
 389 0018 F8E7     		b	.L39
 390              		.cfi_endproc
 391              	.LFE315:
 393              		.comm	gHuart,4,4
 394              		.text
 395              	.Letext0:
 396              		.file 2 "/nfs/nfs5/home/research/hardware/arm2/gcc-arm-embedded/gcc-arm-none-eabi-9-2019-q4-major/
 397              		.file 3 "/nfs/nfs5/home/research/hardware/arm2/gcc-arm-embedded/gcc-arm-none-eabi-9-2019-q4-major/
 398              		.file 4 "/nfs/nfs5/home/research/hardware/arm2/gcc-arm-embedded/gcc-arm-none-eabi-9-2019-q4-major/
 399              		.file 5 "/nfs/nfs5/home/research/hardware/arm2/gcc-arm-embedded/gcc-arm-none-eabi-9-2019-q4-major/
 400              		.file 6 "/nfs/nfs5/home/research/hardware/arm2/gcc-arm-embedded/gcc-arm-none-eabi-9-2019-q4-major/
 401              		.file 7 "/nfs/nfs5/home/research/hardware/arm2/gcc-arm-embedded/gcc-arm-none-eabi-9-2019-q4-major/
 402              		.file 8 "/nfs/nfs5/home/research/hardware/arm2/gcc-arm-embedded/gcc-arm-none-eabi-9-2019-q4-major/
 403              		.file 9 "/nfs/nfs5/home/research/hardware/arm2/gcc-arm-embedded/gcc-arm-none-eabi-9-2019-q4-major/
 404              		.file 10 "/nfs/nfs5/home/research/hardware/arm2/gcc-arm-embedded/gcc-arm-none-eabi-9-2019-q4-major
 405              		.file 11 "/nfs/nfs5/home/research/hardware/arm2/gcc-arm-embedded/gcc-arm-none-eabi-9-2019-q4-major
 406              		.file 12 "Drivers/CMSIS/Include/core_cm4.h"
 407              		.file 13 "Drivers/CMSIS/Device/ST/STM32L4xx/Include/system_stm32l4xx.h"
 408              		.file 14 "Drivers/CMSIS/Device/ST/STM32L4xx/Include/stm32l432xx.h"
 409              		.file 15 "Drivers/STM32L4xx_HAL_Driver/Inc/stm32l4xx_hal_def.h"
 410              		.file 16 "Drivers/STM32L4xx_HAL_Driver/Inc/stm32l4xx_hal_dma.h"
 411              		.file 17 "Drivers/STM32L4xx_HAL_Driver/Inc/stm32l4xx_hal_flash.h"
 412              		.file 18 "Drivers/STM32L4xx_HAL_Driver/Inc/stm32l4xx_hal_uart.h"
ARM GAS  /tmp/ccvmNd5T.s 			page 10


 413              		.file 19 "Drivers/STM32L4xx_HAL_Driver/Inc/stm32l4xx_hal.h"
 414              		.file 20 "/nfs/nfs5/home/research/hardware/arm2/gcc-arm-embedded/gcc-arm-none-eabi-9-2019-q4-major
 415              		.file 21 "/nfs/nfs5/home/research/hardware/arm2/gcc-arm-embedded/gcc-arm-none-eabi-9-2019-q4-major
ARM GAS  /tmp/ccvmNd5T.s 			page 11

